; ModuleID = '39/1139.c'
source_filename = "39/1139.c"
target datalayout = "e-m:e-p270:32:32-p271:32:32-p272:64:64-i64:64-f80:128-n8:16:32:64-S128"
target triple = "x86_64-pc-linux-gnu"

%struct.anon = type { [20 x i8], i32, i32, i8, i8, i32, i32 }

@.str = private unnamed_addr constant [3 x i8] c"%d\00", align 1
@.str.1 = private unnamed_addr constant [18 x i8] c"%s %d %d %c %c %d\00", align 1
@.str.2 = private unnamed_addr constant [4 x i8] c"%s\0A\00", align 1
@.str.3 = private unnamed_addr constant [4 x i8] c"%d\0A\00", align 1

; Function Attrs: noinline nounwind uwtable
define dso_local i32 @main() #0 {
  %1 = alloca i32, align 4
  %2 = alloca [100 x %struct.anon], align 16
  %3 = alloca i32, align 4
  %4 = alloca i32, align 4
  %5 = alloca i32, align 4
  %6 = alloca i32, align 4
  %7 = alloca i32, align 4
  store i32 0, i32* %1, align 4
  %8 = call i32 (i8*, ...) @__isoc99_scanf(i8* getelementptr inbounds ([3 x i8], [3 x i8]* @.str, i64 0, i64 0), i32* %3)
  store i32 0, i32* %4, align 4
  br label %9

9:                                                ; preds = %40, %0
  %10 = load i32, i32* %4, align 4
  %11 = load i32, i32* %3, align 4
  %12 = icmp slt i32 %10, %11
  br i1 %12, label %13, label %43

13:                                               ; preds = %9
  %14 = load i32, i32* %4, align 4
  %15 = sext i32 %14 to i64
  %16 = getelementptr inbounds [100 x %struct.anon], [100 x %struct.anon]* %2, i64 0, i64 %15
  %17 = getelementptr inbounds %struct.anon, %struct.anon* %16, i32 0, i32 0
  %18 = getelementptr inbounds [20 x i8], [20 x i8]* %17, i64 0, i64 0
  %19 = load i32, i32* %4, align 4
  %20 = sext i32 %19 to i64
  %21 = getelementptr inbounds [100 x %struct.anon], [100 x %struct.anon]* %2, i64 0, i64 %20
  %22 = getelementptr inbounds %struct.anon, %struct.anon* %21, i32 0, i32 1
  %23 = load i32, i32* %4, align 4
  %24 = sext i32 %23 to i64
  %25 = getelementptr inbounds [100 x %struct.anon], [100 x %struct.anon]* %2, i64 0, i64 %24
  %26 = getelementptr inbounds %struct.anon, %struct.anon* %25, i32 0, i32 2
  %27 = load i32, i32* %4, align 4
  %28 = sext i32 %27 to i64
  %29 = getelementptr inbounds [100 x %struct.anon], [100 x %struct.anon]* %2, i64 0, i64 %28
  %30 = getelementptr inbounds %struct.anon, %struct.anon* %29, i32 0, i32 3
  %31 = load i32, i32* %4, align 4
  %32 = sext i32 %31 to i64
  %33 = getelementptr inbounds [100 x %struct.anon], [100 x %struct.anon]* %2, i64 0, i64 %32
  %34 = getelementptr inbounds %struct.anon, %struct.anon* %33, i32 0, i32 4
  %35 = load i32, i32* %4, align 4
  %36 = sext i32 %35 to i64
  %37 = getelementptr inbounds [100 x %struct.anon], [100 x %struct.anon]* %2, i64 0, i64 %36
  %38 = getelementptr inbounds %struct.anon, %struct.anon* %37, i32 0, i32 5
  %39 = call i32 (i8*, ...) @__isoc99_scanf(i8* getelementptr inbounds ([18 x i8], [18 x i8]* @.str.1, i64 0, i64 0), i8* %18, i32* %22, i32* %26, i8* %30, i8* %34, i32* %38)
  br label %40

40:                                               ; preds = %13
  %41 = load i32, i32* %4, align 4
  %42 = add nsw i32 %41, 1
  store i32 %42, i32* %4, align 4
  br label %9

43:                                               ; preds = %9
  store i32 0, i32* %5, align 4
  store i32 0, i32* %4, align 4
  br label %44

44:                                               ; preds = %160, %43
  %45 = load i32, i32* %4, align 4
  %46 = load i32, i32* %3, align 4
  %47 = icmp slt i32 %45, %46
  br i1 %47, label %48, label %163

48:                                               ; preds = %44
  %49 = load i32, i32* %4, align 4
  %50 = sext i32 %49 to i64
  %51 = getelementptr inbounds [100 x %struct.anon], [100 x %struct.anon]* %2, i64 0, i64 %50
  %52 = getelementptr inbounds %struct.anon, %struct.anon* %51, i32 0, i32 6
  store i32 0, i32* %52, align 4
  %53 = load i32, i32* %4, align 4
  %54 = sext i32 %53 to i64
  %55 = getelementptr inbounds [100 x %struct.anon], [100 x %struct.anon]* %2, i64 0, i64 %54
  %56 = getelementptr inbounds %struct.anon, %struct.anon* %55, i32 0, i32 1
  %57 = load i32, i32* %56, align 4
  %58 = icmp sgt i32 %57, 80
  br i1 %58, label %59, label %73

59:                                               ; preds = %48
  %60 = load i32, i32* %4, align 4
  %61 = sext i32 %60 to i64
  %62 = getelementptr inbounds [100 x %struct.anon], [100 x %struct.anon]* %2, i64 0, i64 %61
  %63 = getelementptr inbounds %struct.anon, %struct.anon* %62, i32 0, i32 5
  %64 = load i32, i32* %63, align 8
  %65 = icmp sge i32 %64, 1
  br i1 %65, label %66, label %73

66:                                               ; preds = %59
  %67 = load i32, i32* %4, align 4
  %68 = sext i32 %67 to i64
  %69 = getelementptr inbounds [100 x %struct.anon], [100 x %struct.anon]* %2, i64 0, i64 %68
  %70 = getelementptr inbounds %struct.anon, %struct.anon* %69, i32 0, i32 6
  %71 = load i32, i32* %70, align 4
  %72 = add nsw i32 %71, 8000
  store i32 %72, i32* %70, align 4
  br label %73

73:                                               ; preds = %66, %59, %48
  %74 = load i32, i32* %4, align 4
  %75 = sext i32 %74 to i64
  %76 = getelementptr inbounds [100 x %struct.anon], [100 x %struct.anon]* %2, i64 0, i64 %75
  %77 = getelementptr inbounds %struct.anon, %struct.anon* %76, i32 0, i32 1
  %78 = load i32, i32* %77, align 4
  %79 = icmp sgt i32 %78, 85
  br i1 %79, label %80, label %94

80:                                               ; preds = %73
  %81 = load i32, i32* %4, align 4
  %82 = sext i32 %81 to i64
  %83 = getelementptr inbounds [100 x %struct.anon], [100 x %struct.anon]* %2, i64 0, i64 %82
  %84 = getelementptr inbounds %struct.anon, %struct.anon* %83, i32 0, i32 2
  %85 = load i32, i32* %84, align 8
  %86 = icmp sgt i32 %85, 80
  br i1 %86, label %87, label %94

87:                                               ; preds = %80
  %88 = load i32, i32* %4, align 4
  %89 = sext i32 %88 to i64
  %90 = getelementptr inbounds [100 x %struct.anon], [100 x %struct.anon]* %2, i64 0, i64 %89
  %91 = getelementptr inbounds %struct.anon, %struct.anon* %90, i32 0, i32 6
  %92 = load i32, i32* %91, align 4
  %93 = add nsw i32 %92, 4000
  store i32 %93, i32* %91, align 4
  br label %94

94:                                               ; preds = %87, %80, %73
  %95 = load i32, i32* %4, align 4
  %96 = sext i32 %95 to i64
  %97 = getelementptr inbounds [100 x %struct.anon], [100 x %struct.anon]* %2, i64 0, i64 %96
  %98 = getelementptr inbounds %struct.anon, %struct.anon* %97, i32 0, i32 1
  %99 = load i32, i32* %98, align 4
  %100 = icmp sgt i32 %99, 90
  br i1 %100, label %101, label %108

101:                                              ; preds = %94
  %102 = load i32, i32* %4, align 4
  %103 = sext i32 %102 to i64
  %104 = getelementptr inbounds [100 x %struct.anon], [100 x %struct.anon]* %2, i64 0, i64 %103
  %105 = getelementptr inbounds %struct.anon, %struct.anon* %104, i32 0, i32 6
  %106 = load i32, i32* %105, align 4
  %107 = add nsw i32 %106, 2000
  store i32 %107, i32* %105, align 4
  br label %108

108:                                              ; preds = %101, %94
  %109 = load i32, i32* %4, align 4
  %110 = sext i32 %109 to i64
  %111 = getelementptr inbounds [100 x %struct.anon], [100 x %struct.anon]* %2, i64 0, i64 %110
  %112 = getelementptr inbounds %struct.anon, %struct.anon* %111, i32 0, i32 1
  %113 = load i32, i32* %112, align 4
  %114 = icmp sgt i32 %113, 85
  br i1 %114, label %115, label %130

115:                                              ; preds = %108
  %116 = load i32, i32* %4, align 4
  %117 = sext i32 %116 to i64
  %118 = getelementptr inbounds [100 x %struct.anon], [100 x %struct.anon]* %2, i64 0, i64 %117
  %119 = getelementptr inbounds %struct.anon, %struct.anon* %118, i32 0, i32 4
  %120 = load i8, i8* %119, align 1
  %121 = sext i8 %120 to i32
  %122 = icmp eq i32 %121, 89
  br i1 %122, label %123, label %130

123:                                              ; preds = %115
  %124 = load i32, i32* %4, align 4
  %125 = sext i32 %124 to i64
  %126 = getelementptr inbounds [100 x %struct.anon], [100 x %struct.anon]* %2, i64 0, i64 %125
  %127 = getelementptr inbounds %struct.anon, %struct.anon* %126, i32 0, i32 6
  %128 = load i32, i32* %127, align 4
  %129 = add nsw i32 %128, 1000
  store i32 %129, i32* %127, align 4
  br label %130

130:                                              ; preds = %123, %115, %108
  %131 = load i32, i32* %4, align 4
  %132 = sext i32 %131 to i64
  %133 = getelementptr inbounds [100 x %struct.anon], [100 x %struct.anon]* %2, i64 0, i64 %132
  %134 = getelementptr inbounds %struct.anon, %struct.anon* %133, i32 0, i32 2
  %135 = load i32, i32* %134, align 8
  %136 = icmp sgt i32 %135, 80
  br i1 %136, label %137, label %152

137:                                              ; preds = %130
  %138 = load i32, i32* %4, align 4
  %139 = sext i32 %138 to i64
  %140 = getelementptr inbounds [100 x %struct.anon], [100 x %struct.anon]* %2, i64 0, i64 %139
  %141 = getelementptr inbounds %struct.anon, %struct.anon* %140, i32 0, i32 3
  %142 = load i8, i8* %141, align 4
  %143 = sext i8 %142 to i32
  %144 = icmp eq i32 %143, 89
  br i1 %144, label %145, label %152

145:                                              ; preds = %137
  %146 = load i32, i32* %4, align 4
  %147 = sext i32 %146 to i64
  %148 = getelementptr inbounds [100 x %struct.anon], [100 x %struct.anon]* %2, i64 0, i64 %147
  %149 = getelementptr inbounds %struct.anon, %struct.anon* %148, i32 0, i32 6
  %150 = load i32, i32* %149, align 4
  %151 = add nsw i32 %150, 850
  store i32 %151, i32* %149, align 4
  br label %152

152:                                              ; preds = %145, %137, %130
  %153 = load i32, i32* %4, align 4
  %154 = sext i32 %153 to i64
  %155 = getelementptr inbounds [100 x %struct.anon], [100 x %struct.anon]* %2, i64 0, i64 %154
  %156 = getelementptr inbounds %struct.anon, %struct.anon* %155, i32 0, i32 6
  %157 = load i32, i32* %156, align 4
  %158 = load i32, i32* %5, align 4
  %159 = add nsw i32 %158, %157
  store i32 %159, i32* %5, align 4
  br label %160

160:                                              ; preds = %152
  %161 = load i32, i32* %4, align 4
  %162 = add nsw i32 %161, 1
  store i32 %162, i32* %4, align 4
  br label %44

163:                                              ; preds = %44
  store i32 0, i32* %6, align 4
  store i32 0, i32* %4, align 4
  br label %164

164:                                              ; preds = %184, %163
  %165 = load i32, i32* %4, align 4
  %166 = load i32, i32* %3, align 4
  %167 = icmp slt i32 %165, %166
  br i1 %167, label %168, label %187

168:                                              ; preds = %164
  %169 = load i32, i32* %4, align 4
  %170 = sext i32 %169 to i64
  %171 = getelementptr inbounds [100 x %struct.anon], [100 x %struct.anon]* %2, i64 0, i64 %170
  %172 = getelementptr inbounds %struct.anon, %struct.anon* %171, i32 0, i32 6
  %173 = load i32, i32* %172, align 4
  %174 = load i32, i32* %6, align 4
  %175 = icmp sgt i32 %173, %174
  br i1 %175, label %176, label %183

176:                                              ; preds = %168
  %177 = load i32, i32* %4, align 4
  %178 = sext i32 %177 to i64
  %179 = getelementptr inbounds [100 x %struct.anon], [100 x %struct.anon]* %2, i64 0, i64 %178
  %180 = getelementptr inbounds %struct.anon, %struct.anon* %179, i32 0, i32 6
  %181 = load i32, i32* %180, align 4
  store i32 %181, i32* %6, align 4
  %182 = load i32, i32* %4, align 4
  store i32 %182, i32* %7, align 4
  br label %183

183:                                              ; preds = %176, %168
  br label %184

184:                                              ; preds = %183
  %185 = load i32, i32* %4, align 4
  %186 = add nsw i32 %185, 1
  store i32 %186, i32* %4, align 4
  br label %164

187:                                              ; preds = %164
  %188 = load i32, i32* %7, align 4
  %189 = sext i32 %188 to i64
  %190 = getelementptr inbounds [100 x %struct.anon], [100 x %struct.anon]* %2, i64 0, i64 %189
  %191 = getelementptr inbounds %struct.anon, %struct.anon* %190, i32 0, i32 0
  %192 = getelementptr inbounds [20 x i8], [20 x i8]* %191, i64 0, i64 0
  %193 = call i32 (i8*, ...) @printf(i8* getelementptr inbounds ([4 x i8], [4 x i8]* @.str.2, i64 0, i64 0), i8* %192)
  %194 = load i32, i32* %6, align 4
  %195 = call i32 (i8*, ...) @printf(i8* getelementptr inbounds ([4 x i8], [4 x i8]* @.str.3, i64 0, i64 0), i32 %194)
  %196 = load i32, i32* %5, align 4
  %197 = call i32 (i8*, ...) @printf(i8* getelementptr inbounds ([3 x i8], [3 x i8]* @.str, i64 0, i64 0), i32 %196)
  ret i32 0
}

declare dso_local i32 @__isoc99_scanf(i8*, ...) #1

declare dso_local i32 @printf(i8*, ...) #1


!llvm.module.flags = !{!0}
!llvm.ident = !{!1}

!0 = !{i32 1, !"wchar_size", i32 4}
!1 = !{!"clang version 10.0.0-4ubuntu1 "}
